target datalayout = "e-m:e-p270:32:32-p271:32:32-p272:64:64-i64:64-i128:128-f80:128-n8:16:32:64-S128"
target triple = "x86_64-pc-linux-gnu"

%struct.DCALbrDecoder = type { ptr, %struct.GetBitContext, i32, i32, i32, i32, i32, i32, i32, i32, i32, i32, i32, i32, i32, i32, i32, i32, i32, i32, i32, [3 x [32 x i8]], [32 x i8], [3 x [32 x i8]], [3 x [32 x i8]], [6 x i32], [6 x [12 x [8 x i8]]], [6 x [3 x [64 x i8]]], [6 x [28 x i8]], [6 x [28 x [8 x i8]]], [6 x i32], [6 x [32 x [8 x i8]]], [6 x [8 x [5 x i8]]], i8, [2 x [6 x [3 x [2 x [8 x float]]]]], [32 x float], [6 x [32 x ptr]], ptr, i32, [4 x i8], [6 x [128 x float]], [128 x float], [64 x float], [5 x [2 x float]], float, [6 x i8], [5 x [32 x [2 x i16]]], [512 x %struct.DCALbrTone], i32, ptr, ptr, ptr, ptr, [8 x i8] }
%struct.GetBitContext = type { ptr, ptr, i32, i32, i32 }
%struct.DCALbrTone = type { i8, i8, i8, i8, [6 x i8], [6 x i8] }
%struct.DCADSPContext = type { ptr, ptr, [2 x ptr], ptr, [2 x ptr], ptr, ptr, [2 x ptr], ptr, ptr, ptr, ptr, ptr, ptr, ptr, ptr, ptr }
%struct.AVFloatDSPContext = type { ptr, ptr, ptr, ptr, ptr, ptr, ptr, ptr, ptr, ptr, ptr, ptr }

@ff_dca_bank_coeff = external constant [10 x float], align 16

; Function Attrs: nounwind uwtable
define internal void @base_func_synth(ptr noundef %0, i32 noundef %1, ptr noundef %2, i32 noundef %3) #3 {
  %5 = alloca ptr, align 8
  %6 = alloca i32, align 4
  %7 = alloca ptr, align 8
  %8 = alloca i32, align 4
  %9 = alloca i32, align 4
  %10 = alloca i32, align 4
  %11 = alloca i32, align 4
  store ptr %0, ptr %5, align 8, !tbaa !12
  store i32 %1, ptr %6, align 4, !tbaa !4
  store ptr %2, ptr %7, align 8, !tbaa !142
  store i32 %3, ptr %8, align 4, !tbaa !4
  call void @llvm.lifetime.start.p0(i64 4, ptr %9) #12
  store i32 0, ptr %9, align 4, !tbaa !4
  br label %12

12:                                               ; preds = %53, %4
  %13 = load i32, ptr %9, align 4, !tbaa !4
  %14 = icmp slt i32 %13, 5
  br i1 %14, label %15, label %56

15:                                               ; preds = %12
  call void @llvm.lifetime.start.p0(i64 4, ptr %10) #12
  %16 = load ptr, ptr %5, align 8, !tbaa !12
  %17 = getelementptr inbounds nuw %struct.DCALbrDecoder, ptr %16, i32 0, i32 18
  %18 = load i32, ptr %17, align 8, !tbaa !55
  %19 = load i32, ptr %9, align 4, !tbaa !4
  %20 = shl i32 %18, %19
  %21 = load i32, ptr %8, align 4, !tbaa !4
  %22 = sub nsw i32 %21, 22
  %23 = load i32, ptr %9, align 4, !tbaa !4
  %24 = sub nsw i32 5, %23
  %25 = ashr i32 %22, %24
  %26 = add nsw i32 %20, %25
  store i32 %26, ptr %10, align 4, !tbaa !4
  call void @llvm.lifetime.start.p0(i64 4, ptr %11) #12
  %27 = load i32, ptr %8, align 4, !tbaa !4
  %28 = sub nsw i32 %27, 22
  %29 = and i32 %28, 31
  %30 = load i32, ptr %9, align 4, !tbaa !4
  %31 = shl i32 %29, %30
  %32 = and i32 %31, 31
  %33 = load i32, ptr %9, align 4, !tbaa !4
  %34 = shl i32 1, %33
  %35 = add nsw i32 %32, %34
  %36 = sub nsw i32 %35, 1
  store i32 %36, ptr %11, align 4, !tbaa !4
  %37 = load ptr, ptr %5, align 8, !tbaa !12
  %38 = load i32, ptr %6, align 4, !tbaa !4
  %39 = load ptr, ptr %7, align 8, !tbaa !142
  %40 = load i32, ptr %9, align 4, !tbaa !4
  %41 = load i32, ptr %10, align 4, !tbaa !4
  %42 = sub nsw i32 %41, 1
  %43 = and i32 %42, 31
  %44 = load i32, ptr %11, align 4, !tbaa !4
  %45 = sub nsw i32 30, %44
  call void @synth_tones(ptr noundef %37, i32 noundef %38, ptr noundef %39, i32 noundef %40, i32 noundef %43, i32 noundef %45)
  %46 = load ptr, ptr %5, align 8, !tbaa !12
  %47 = load i32, ptr %6, align 4, !tbaa !4
  %48 = load ptr, ptr %7, align 8, !tbaa !142
  %49 = load i32, ptr %9, align 4, !tbaa !4
  %50 = load i32, ptr %10, align 4, !tbaa !4
  %51 = and i32 %50, 31
  %52 = load i32, ptr %11, align 4, !tbaa !4
  call void @synth_tones(ptr noundef %46, i32 noundef %47, ptr noundef %48, i32 noundef %49, i32 noundef %51, i32 noundef %52)
  call void @llvm.lifetime.end.p0(i64 4, ptr %11) #12
  call void @llvm.lifetime.end.p0(i64 4, ptr %10) #12
  br label %53

53:                                               ; preds = %15
  %54 = load i32, ptr %9, align 4, !tbaa !4
  %55 = add nsw i32 %54, 1
  store i32 %55, ptr %9, align 4, !tbaa !4
  br label %12, !llvm.loop !243

56:                                               ; preds = %12
  call void @llvm.lifetime.end.p0(i64 4, ptr %9) #12
  ret void
}

; Function Attrs: nounwind uwtable
define internal void @transform_channel(ptr noundef %0, i32 noundef %1, ptr noundef %2) #3 {
  %4 = alloca ptr, align 8
  %5 = alloca i32, align 4
  %6 = alloca ptr, align 8
  %7 = alloca [32 x [4 x float]], align 16
  %8 = alloca ptr, align 8
  %9 = alloca [64 x [4 x float]], align 16
  %10 = alloca ptr, align 8
  %11 = alloca i32, align 4
  %12 = alloca i32, align 4
  %13 = alloca i32, align 4
  %14 = alloca i32, align 4
  %15 = alloca ptr, align 8
  store ptr %0, ptr %4, align 8, !tbaa !12
  store i32 %1, ptr %5, align 4, !tbaa !4
  store ptr %2, ptr %6, align 8, !tbaa !142
  call void @llvm.lifetime.start.p0(i64 512, ptr %7) #12
  call void @llvm.lifetime.start.p0(i64 8, ptr %8) #12
  %16 = getelementptr inbounds [32 x [4 x float]], ptr %7, i64 0, i64 0
  store ptr %16, ptr %8, align 8, !tbaa !142
  call void @llvm.lifetime.start.p0(i64 1024, ptr %9) #12
  call void @llvm.lifetime.start.p0(i64 8, ptr %10) #12
  %17 = getelementptr inbounds [64 x [4 x float]], ptr %9, i64 0, i64 0
  store ptr %17, ptr %10, align 8, !tbaa !142
  call void @llvm.lifetime.start.p0(i64 4, ptr %11) #12
  call void @llvm.lifetime.start.p0(i64 4, ptr %12) #12
  call void @llvm.lifetime.start.p0(i64 4, ptr %13) #12
  %18 = load ptr, ptr %4, align 8, !tbaa !12
  %19 = getelementptr inbounds nuw %struct.DCALbrDecoder, ptr %18, i32 0, i32 14
  %20 = load i32, ptr %19, align 8, !tbaa !57
  store i32 %20, ptr %13, align 4, !tbaa !4
  call void @llvm.lifetime.start.p0(i64 4, ptr %14) #12
  %21 = load ptr, ptr %4, align 8, !tbaa !12
  %22 = getelementptr inbounds nuw %struct.DCALbrDecoder, ptr %21, i32 0, i32 9
  %23 = load i32, ptr %22, align 4, !tbaa !87
  %24 = shl i32 8, %23
  store i32 %24, ptr %14, align 4, !tbaa !4
  %25 = load i32, ptr %13, align 4, !tbaa !4
  %26 = load i32, ptr %14, align 4, !tbaa !4
  %27 = icmp slt i32 %25, %26
  br i1 %27, label %28, label %39

28:                                               ; preds = %3
  %29 = load ptr, ptr %8, align 8, !tbaa !142
  %30 = load i32, ptr %13, align 4, !tbaa !4
  %31 = sext i32 %30 to i64
  %32 = getelementptr inbounds [4 x float], ptr %29, i64 %31
  %33 = getelementptr inbounds [4 x float], ptr %32, i64 0, i64 0
  %34 = load i32, ptr %14, align 4, !tbaa !4
  %35 = load i32, ptr %13, align 4, !tbaa !4
  %36 = sub nsw i32 %34, %35
  %37 = sext i32 %36 to i64
  %38 = mul i64 %37, 16
  call void @llvm.memset.p0.i64(ptr align 4 %33, i8 0, i64 %38, i1 false)
  br label %39

39:                                               ; preds = %28, %3
  store i32 0, ptr %11, align 4, !tbaa !4
  br label %40

40:                                               ; preds = %125, %39
  %41 = load i32, ptr %11, align 4, !tbaa !4
  %42 = icmp slt i32 %41, 32
  br i1 %42, label %43, label %128

43:                                               ; preds = %40
  %44 = load ptr, ptr %4, align 8, !tbaa !12
  %45 = getelementptr inbounds nuw %struct.DCALbrDecoder, ptr %44, i32 0, i32 52
  %46 = load ptr, ptr %45, align 16, !tbaa !136
  %47 = getelementptr inbounds nuw %struct.DCADSPContext, ptr %46, i32 0, i32 15
  %48 = load ptr, ptr %47, align 8, !tbaa !165
  %49 = load ptr, ptr %8, align 8, !tbaa !142
  %50 = load ptr, ptr %4, align 8, !tbaa !12
  %51 = getelementptr inbounds nuw %struct.DCALbrDecoder, ptr %50, i32 0, i32 36
  %52 = load i32, ptr %5, align 4, !tbaa !4
  %53 = sext i32 %52 to i64
  %54 = getelementptr inbounds [6 x [32 x ptr]], ptr %51, i64 0, i64 %53
  %55 = getelementptr inbounds [32 x ptr], ptr %54, i64 0, i64 0
  %56 = load i32, ptr %11, align 4, !tbaa !4
  %57 = mul nsw i32 %56, 4
  %58 = sext i32 %57 to i64
  %59 = load i32, ptr %13, align 4, !tbaa !4
  %60 = sext i32 %59 to i64
  call void %48(ptr noundef %49, ptr noundef %55, ptr noundef @ff_dca_bank_coeff, i64 noundef %58, i64 noundef %60)
  %61 = load ptr, ptr %4, align 8, !tbaa !12
  %62 = load i32, ptr %5, align 4, !tbaa !4
  %63 = load ptr, ptr %8, align 8, !tbaa !142
  %64 = getelementptr inbounds [4 x float], ptr %63, i64 0
  %65 = getelementptr inbounds [4 x float], ptr %64, i64 0, i64 0
  %66 = load i32, ptr %11, align 4, !tbaa !4
  call void @base_func_synth(ptr noundef %61, i32 noundef %62, ptr noundef %65, i32 noundef %66)
  %67 = load ptr, ptr %4, align 8, !tbaa !12
  %68 = getelementptr inbounds nuw %struct.DCALbrDecoder, ptr %67, i32 0, i32 50
  %69 = load ptr, ptr %68, align 16, !tbaa !166
  %70 = load ptr, ptr %4, align 8, !tbaa !12
  %71 = getelementptr inbounds nuw %struct.DCALbrDecoder, ptr %70, i32 0, i32 49
  %72 = load ptr, ptr %71, align 8, !tbaa !167
  %73 = load ptr, ptr %10, align 8, !tbaa !142
  %74 = getelementptr inbounds [4 x float], ptr %73, i64 0
  %75 = getelementptr inbounds [4 x float], ptr %74, i64 0, i64 0
  %76 = load ptr, ptr %8, align 8, !tbaa !142
  %77 = getelementptr inbounds [4 x float], ptr %76, i64 0
  %78 = getelementptr inbounds [4 x float], ptr %77, i64 0, i64 0
  call void %69(ptr noundef %72, ptr noundef %75, ptr noundef %78, i64 noundef 4)
  %79 = load ptr, ptr %4, align 8, !tbaa !12
  %80 = getelementptr inbounds nuw %struct.DCALbrDecoder, ptr %79, i32 0, i32 51
  %81 = load ptr, ptr %80, align 8, !tbaa !168
  %82 = getelementptr inbounds nuw %struct.AVFloatDSPContext, ptr %81, i32 0, i32 6
  %83 = load ptr, ptr %82, align 8, !tbaa !169
  %84 = load ptr, ptr %6, align 8, !tbaa !142
  %85 = load ptr, ptr %10, align 8, !tbaa !142
  %86 = getelementptr inbounds [4 x float], ptr %85, i64 0
  %87 = getelementptr inbounds [4 x float], ptr %86, i64 0, i64 0
  %88 = load ptr, ptr %4, align 8, !tbaa !12
  %89 = getelementptr inbounds nuw %struct.DCALbrDecoder, ptr %88, i32 0, i32 41
  %90 = getelementptr inbounds [128 x float], ptr %89, i64 0, i64 0
  %91 = load ptr, ptr %4, align 8, !tbaa !12
  %92 = getelementptr inbounds nuw %struct.DCALbrDecoder, ptr %91, i32 0, i32 40
  %93 = load i32, ptr %5, align 4, !tbaa !4
  %94 = sext i32 %93 to i64
  %95 = getelementptr inbounds [6 x [128 x float]], ptr %92, i64 0, i64 %94
  %96 = getelementptr inbounds [128 x float], ptr %95, i64 0, i64 0
  %97 = load i32, ptr %14, align 4, !tbaa !4
  %98 = mul nsw i32 %97, 4
  call void %83(ptr noundef %84, ptr noundef %87, ptr noundef %90, ptr noundef %96, i32 noundef %98)
  %99 = load ptr, ptr %4, align 8, !tbaa !12
  %100 = getelementptr inbounds nuw %struct.DCALbrDecoder, ptr %99, i32 0, i32 51
  %101 = load ptr, ptr %100, align 8, !tbaa !168
  %102 = getelementptr inbounds nuw %struct.AVFloatDSPContext, ptr %101, i32 0, i32 7
  %103 = load ptr, ptr %102, align 8, !tbaa !171
  %104 = load ptr, ptr %4, align 8, !tbaa !12
  %105 = getelementptr inbounds nuw %struct.DCALbrDecoder, ptr %104, i32 0, i32 40
  %106 = load i32, ptr %5, align 4, !tbaa !4
  %107 = sext i32 %106 to i64
  %108 = getelementptr inbounds [6 x [128 x float]], ptr %105, i64 0, i64 %107
  %109 = getelementptr inbounds [128 x float], ptr %108, i64 0, i64 0
  %110 = load ptr, ptr %10, align 8, !tbaa !142
  %111 = load i32, ptr %14, align 4, !tbaa !4
  %112 = sext i32 %111 to i64
  %113 = getelementptr inbounds [4 x float], ptr %110, i64 %112
  %114 = getelementptr inbounds [4 x float], ptr %113, i64 0, i64 0
  %115 = load ptr, ptr %4, align 8, !tbaa !12
  %116 = getelementptr inbounds nuw %struct.DCALbrDecoder, ptr %115, i32 0, i32 41
  %117 = getelementptr inbounds [128 x float], ptr %116, i64 0, i64 0
  %118 = load i32, ptr %14, align 4, !tbaa !4
  %119 = mul nsw i32 %118, 4
  call void %103(ptr noundef %109, ptr noundef %114, ptr noundef %117, i32 noundef %119)
  %120 = load i32, ptr %14, align 4, !tbaa !4
  %121 = mul nsw i32 %120, 4
  %122 = load ptr, ptr %6, align 8, !tbaa !142
  %123 = sext i32 %121 to i64
  %124 = getelementptr inbounds float, ptr %122, i64 %123
  store ptr %124, ptr %6, align 8, !tbaa !142
  br label %125

125:                                              ; preds = %43
  %126 = load i32, ptr %11, align 4, !tbaa !4
  %127 = add nsw i32 %126, 1
  store i32 %127, ptr %11, align 4, !tbaa !4
  br label %40, !llvm.loop !172

128:                                              ; preds = %40
  store i32 0, ptr %12, align 4, !tbaa !4
  br label %129

129:                                              ; preds = %147, %128
  %130 = load i32, ptr %12, align 4, !tbaa !4
  %131 = load i32, ptr %13, align 4, !tbaa !4
  %132 = icmp slt i32 %130, %131
  br i1 %132, label %133, label %150

133:                                              ; preds = %129
  call void @llvm.lifetime.start.p0(i64 8, ptr %15) #12
  %134 = load ptr, ptr %4, align 8, !tbaa !12
  %135 = getelementptr inbounds nuw %struct.DCALbrDecoder, ptr %134, i32 0, i32 36
  %136 = load i32, ptr %5, align 4, !tbaa !4
  %137 = sext i32 %136 to i64
  %138 = getelementptr inbounds [6 x [32 x ptr]], ptr %135, i64 0, i64 %137
  %139 = load i32, ptr %12, align 4, !tbaa !4
  %140 = sext i32 %139 to i64
  %141 = getelementptr inbounds [32 x ptr], ptr %138, i64 0, i64 %140
  %142 = load ptr, ptr %141, align 8, !tbaa !142
  %143 = getelementptr inbounds float, ptr %142, i64 -8
  store ptr %143, ptr %15, align 8, !tbaa !142
  %144 = load ptr, ptr %15, align 8, !tbaa !142
  %145 = load ptr, ptr %15, align 8, !tbaa !142
  %146 = getelementptr inbounds float, ptr %145, i64 128
  call void @llvm.memcpy.p0.p0.i64(ptr align 4 %144, ptr align 4 %146, i64 32, i1 false)
  call void @llvm.lifetime.end.p0(i64 8, ptr %15) #12
  br label %147

147:                                              ; preds = %133
  %148 = load i32, ptr %12, align 4, !tbaa !4
  %149 = add nsw i32 %148, 1
  store i32 %149, ptr %12, align 4, !tbaa !4
  br label %129, !llvm.loop !173

150:                                              ; preds = %129
  call void @llvm.lifetime.end.p0(i64 4, ptr %14) #12
  call void @llvm.lifetime.end.p0(i64 4, ptr %13) #12
  call void @llvm.lifetime.end.p0(i64 4, ptr %12) #12
  call void @llvm.lifetime.end.p0(i64 4, ptr %11) #12
  call void @llvm.lifetime.end.p0(i64 8, ptr %10) #12
  call void @llvm.lifetime.end.p0(i64 1024, ptr %9) #12
  call void @llvm.lifetime.end.p0(i64 8, ptr %8) #12
  call void @llvm.lifetime.end.p0(i64 512, ptr %7) #12
  ret void
}