; Function Attrs: nounwind uwtable
define internal fastcc void @transform_channel(ptr noundef %0, i32 noundef range(i32 -2147483648, 126) %1, ptr noundef %2) unnamed_addr #3 {
  %4 = alloca [32 x [4 x float]], align 16
  %5 = alloca [64 x [4 x float]], align 16
  call void @llvm.lifetime.start.p0(i64 512, ptr nonnull %4) #12
  call void @llvm.lifetime.start.p0(i64 1024, ptr nonnull %5) #12
  %6 = getelementptr inbounds nuw i8, ptr %0, i64 88
  %7 = load i32, ptr %6, align 8, !tbaa !39
  %8 = getelementptr inbounds nuw i8, ptr %0, i64 68
  %9 = load i32, ptr %8, align 4, !tbaa !35
  %10 = shl i32 8, %9
  %11 = icmp slt i32 %7, %10
  %12 = sext i32 %7 to i64
  br i1 %11, label %13, label %._crit_edge59

13:                                               ; preds = %3
  %14 = getelementptr inbounds [4 x float], ptr %4, i64 %12
  %15 = sub nsw i32 %10, %7
  %16 = sext i32 %15 to i64
  %17 = shl nsw i64 %16, 4
  call void @llvm.memset.p0.i64(ptr nonnull align 16 %14, i8 0, i64 %17, i1 false)
  br label %._crit_edge59

._crit_edge59:                                    ; preds = %3, %13
  %18 = getelementptr inbounds nuw i8, ptr %0, i64 22240
  %19 = getelementptr inbounds nuw i8, ptr %0, i64 7936
  %20 = sext i32 %1 to i64
  %21 = getelementptr inbounds [6 x [32 x ptr]], ptr %19, i64 0, i64 %20
  %22 = getelementptr inbounds nuw i8, ptr %0, i64 104
  %23 = getelementptr inbounds nuw i8, ptr %0, i64 22224
  %24 = getelementptr inbounds nuw i8, ptr %0, i64 22216
  %25 = getelementptr inbounds nuw i8, ptr %0, i64 22232
  %26 = getelementptr inbounds nuw i8, ptr %0, i64 12560
  %27 = getelementptr inbounds nuw i8, ptr %0, i64 9488
  %28 = getelementptr inbounds [6 x [128 x float]], ptr %27, i64 0, i64 %20
  %29 = shl i32 32, %9
  %30 = sext i32 %10 to i64
  %31 = getelementptr inbounds [4 x float], ptr %5, i64 %30
  %32 = sext i32 %29 to i64
  br label %34

.preheader:                                       ; preds = %base_func_synth.exit
  %33 = icmp sgt i32 %7, 0
  br i1 %33, label %.lr.ph, label %._crit_edge

.lr.ph:                                           ; preds = %.preheader
  %wide.trip.count = zext nneg i32 %7 to i64
  br label %66

34:                                               ; preds = %._crit_edge59, %base_func_synth.exit
  %indvars.iv = phi i64 [ 0, %._crit_edge59 ], [ %indvars.iv.next, %base_func_synth.exit ]
  %.052 = phi ptr [ %2, %._crit_edge59 ], [ %65, %base_func_synth.exit ]
  %35 = load ptr, ptr %18, align 16, !tbaa !162
  %36 = getelementptr inbounds nuw i8, ptr %35, i64 144
  %37 = load ptr, ptr %36, align 8, !tbaa !164
  %38 = shl nuw nsw i64 %indvars.iv, 2
  call void %37(ptr noundef nonnull %4, ptr noundef nonnull %21, ptr noundef nonnull @ff_dca_bank_coeff, i64 noundef %38, i64 noundef %12) #12
  %39 = trunc i64 %indvars.iv to i32
  %40 = add i32 %39, -22
  br label %41

41:                                               ; preds = %41, %34
  %.020.i = phi i32 [ 0, %34 ], [ %56, %41 ]
  %42 = load i32, ptr %22, align 8, !tbaa !71
  %43 = shl i32 %42, %.020.i
  %44 = sub nuw nsw i32 5, %.020.i
  %45 = ashr i32 %40, %44
  %46 = add nsw i32 %43, %45
  %47 = shl i32 %40, %.020.i
  %48 = and i32 %47, 31
  %49 = shl nuw nsw i32 1, %.020.i
  %50 = add nuw nsw i32 %48, %49
  %51 = add nsw i32 %50, -1
  %52 = add i32 %46, 31
  %53 = and i32 %52, 31
  %54 = sub nsw i32 31, %50
  call fastcc void @synth_tones(ptr noundef nonnull %0, i32 noundef range(i32 -2147483648, 126) %1, ptr noundef nonnull %4, i32 noundef %.020.i, i32 noundef %53, i32 noundef %54)
  %55 = and i32 %46, 31
  call fastcc void @synth_tones(ptr noundef nonnull %0, i32 noundef range(i32 -2147483648, 126) %1, ptr noundef nonnull %4, i32 noundef %.020.i, i32 noundef %55, i32 noundef %51)
  %56 = add nuw nsw i32 %.020.i, 1
  %exitcond.not.i = icmp eq i32 %56, 5
  br i1 %exitcond.not.i, label %base_func_synth.exit, label %41, !llvm.loop !165

base_func_synth.exit:                             ; preds = %41
  %57 = load ptr, ptr %23, align 16, !tbaa !166
  %58 = load ptr, ptr %24, align 8, !tbaa !167
  call void %57(ptr noundef %58, ptr noundef nonnull %5, ptr noundef nonnull %4, i64 noundef 4) #12
  %59 = load ptr, ptr %25, align 8, !tbaa !168
  %60 = getelementptr inbounds nuw i8, ptr %59, i64 48
  %61 = load ptr, ptr %60, align 8, !tbaa !169
  call void %61(ptr noundef %.052, ptr noundef nonnull %5, ptr noundef nonnull %26, ptr noundef nonnull %28, i32 noundef %29) #12
  %62 = load ptr, ptr %25, align 8, !tbaa !168
  %63 = getelementptr inbounds nuw i8, ptr %62, i64 56
  %64 = load ptr, ptr %63, align 8, !tbaa !171
  call void %64(ptr noundef nonnull %28, ptr noundef nonnull %31, ptr noundef nonnull %26, i32 noundef %29) #12
  %65 = getelementptr inbounds float, ptr %.052, i64 %32
  %indvars.iv.next = add nuw nsw i64 %indvars.iv, 1
  %exitcond.not = icmp eq i64 %indvars.iv.next, 32
  br i1 %exitcond.not, label %.preheader, label %34, !llvm.loop !172

66:                                               ; preds = %.lr.ph, %66
  %indvars.iv55 = phi i64 [ 0, %.lr.ph ], [ %indvars.iv.next56, %66 ]
  %67 = getelementptr inbounds [6 x [32 x ptr]], ptr %19, i64 0, i64 %20, i64 %indvars.iv55
  %68 = load ptr, ptr %67, align 8, !tbaa !132
  %69 = getelementptr inbounds i8, ptr %68, i64 -32
  %70 = getelementptr inbounds nuw i8, ptr %68, i64 480
  call void @llvm.memcpy.p0.p0.i64(ptr noundef nonnull align 4 dereferenceable(32) %69, ptr noundef nonnull align 4 dereferenceable(32) %70, i64 32, i1 false)
  %indvars.iv.next56 = add nuw nsw i64 %indvars.iv55, 1
  %exitcond58.not = icmp eq i64 %indvars.iv.next56, %wide.trip.count
  br i1 %exitcond58.not, label %._crit_edge, label %66, !llvm.loop !173

._crit_edge:                                      ; preds = %66, %.preheader
  call void @llvm.lifetime.end.p0(i64 1024, ptr nonnull %5) #12
  call void @llvm.lifetime.end.p0(i64 512, ptr nonnull %4) #12
  ret void
}